target datalayout = "e-m:e-p270:32:32-p271:32:32-p272:64:64-i64:64-i128:128-f80:128-n8:16:32:64-S128"
target triple = "x86_64-pc-linux-gnu"

%"class.boost::intrusive_ptr" = type { ptr }
%"class.boost::intrusive_ptr.1" = type { ptr }
%"class.boost::log::v2_mt_posix::attribute" = type { %"class.boost::intrusive_ptr.1" }
%"class.boost::sp_adl_block::intrusive_ref_counter" = type { %"class.boost::detail::atomic_count" }
%"class.boost::detail::atomic_count" = type { i32 }

@_ZN5boost3log11v2_mt_posix3aux9singletonINS1_10attributes11named_scope4implENS_13intrusive_ptrIS6_EEE8instanceE = linkonce_odr hidden global ptr null, comdat, align 8

; Function Attrs: mustprogress nounwind uwtable
define linkonce_odr hidden noundef i64 @_ZN5boost6detail12atomic_countmmEv(ptr noundef nonnull align 4 dereferenceable(4) %0) #2 comdat align 2 {
  %2 = alloca ptr, align 8
  %3 = alloca i32, align 4
  %4 = alloca i32, align 4
  store ptr %0, ptr %2, align 8, !tbaa !3
  %5 = load ptr, ptr %2, align 8
  %6 = getelementptr inbounds nuw %"class.boost::detail::atomic_count", ptr %5, i32 0, i32 0
  store i32 -1, ptr %3, align 4, !tbaa !25
  %7 = load i32, ptr %3, align 4
  %8 = atomicrmw add ptr %6, i32 %7 acq_rel, align 4
  %9 = add i32 %8, %7
  store i32 %9, ptr %4, align 4
  %10 = load i32, ptr %4, align 4, !tbaa !25
  %11 = sext i32 %10 to i64
  ret i64 %11
}

; Function Attrs: noinline noreturn nounwind uwtable
define linkonce_odr hidden void @__clang_call_terminate(ptr noundef %0) #4 comdat {
  %2 = call ptr @__cxa_begin_catch(ptr %0) #17
  call void @_ZSt9terminatev() #19
  unreachable
}

; Function Attrs: mustprogress nounwind uwtable
define linkonce_odr hidden noundef i64 @_ZN5boost6detail12atomic_countppEv(ptr noundef nonnull align 4 dereferenceable(4) %0) #2 comdat align 2 {
  %2 = alloca ptr, align 8
  %3 = alloca i32, align 4
  %4 = alloca i32, align 4
  store ptr %0, ptr %2, align 8, !tbaa !3
  %5 = load ptr, ptr %2, align 8
  %6 = getelementptr inbounds nuw %"class.boost::detail::atomic_count", ptr %5, i32 0, i32 0
  store i32 1, ptr %3, align 4, !tbaa !25
  %7 = load i32, ptr %3, align 4
  %8 = atomicrmw add ptr %6, i32 %7 acq_rel, align 4
  %9 = add i32 %8, %7
  store i32 %9, ptr %4, align 4
  %10 = load i32, ptr %4, align 4, !tbaa !25
  %11 = sext i32 %10 to i64
  ret i64 %11
}

; Function Attrs: mustprogress nounwind uwtable
define linkonce_odr hidden noundef i32 @_ZN5boost12sp_adl_block19thread_safe_counter9decrementERNS_6detail12atomic_countE(ptr noundef nonnull align 4 dereferenceable(4) %0) #2 comdat align 2 personality ptr @__gxx_personality_v0 {
  %2 = alloca ptr, align 8
  store ptr %0, ptr %2, align 8, !tbaa !3
  %3 = load ptr, ptr %2, align 8, !tbaa !3
  %4 = invoke noundef i64 @_ZN5boost6detail12atomic_countmmEv(ptr noundef nonnull align 4 dereferenceable(4) %3)
          to label %5 unwind label %7

5:                                                ; preds = %1
  %6 = trunc i64 %4 to i32
  ret i32 %6

7:                                                ; preds = %1
  %8 = landingpad { ptr, i32 }
          catch ptr null
  %9 = extractvalue { ptr, i32 } %8, 0
  call void @__clang_call_terminate(ptr %9) #19
  unreachable
}

; Function Attrs: mustprogress nounwind uwtable
define linkonce_odr hidden void @_ZN5boost12sp_adl_block19thread_safe_counter9incrementERNS_6detail12atomic_countE(ptr noundef nonnull align 4 dereferenceable(4) %0) #2 comdat align 2 personality ptr @__gxx_personality_v0 {
  %2 = alloca ptr, align 8
  store ptr %0, ptr %2, align 8, !tbaa !3
  %3 = load ptr, ptr %2, align 8, !tbaa !3
  %4 = invoke noundef i64 @_ZN5boost6detail12atomic_countppEv(ptr noundef nonnull align 4 dereferenceable(4) %3)
          to label %5 unwind label %6

5:                                                ; preds = %1
  ret void

6:                                                ; preds = %1
  %7 = landingpad { ptr, i32 }
          catch ptr null
  %8 = extractvalue { ptr, i32 } %7, 0
  call void @__clang_call_terminate(ptr %8) #19
  unreachable
}

; Function Attrs: inlinehint mustprogress nounwind uwtable
define linkonce_odr hidden void @_ZN5boost12sp_adl_block21intrusive_ptr_releaseINS_3log11v2_mt_posix9attribute4implENS0_19thread_safe_counterEEEvPKNS0_21intrusive_ref_counterIT_T0_EE(ptr noundef %0) #5 comdat {
  %2 = alloca ptr, align 8
  store ptr %0, ptr %2, align 8, !tbaa !3
  %3 = load ptr, ptr %2, align 8, !tbaa !3
  %4 = getelementptr inbounds nuw %"class.boost::sp_adl_block::intrusive_ref_counter", ptr %3, i32 0, i32 0
  %5 = call noundef i32 @_ZN5boost12sp_adl_block19thread_safe_counter9decrementERNS_6detail12atomic_countE(ptr noundef nonnull align 4 dereferenceable(4) %4) #17
  %6 = icmp eq i32 %5, 0
  br i1 %6, label %7, label %21

7:                                                ; preds = %1
  %8 = load ptr, ptr %2, align 8, !tbaa !3
  %9 = icmp eq ptr %8, null
  br i1 %9, label %12, label %10

10:                                               ; preds = %7
  %11 = getelementptr inbounds i8, ptr %8, i64 -8
  br label %13

12:                                               ; preds = %7
  br label %13

13:                                               ; preds = %12, %10
  %14 = phi ptr [ %11, %10 ], [ null, %12 ]
  %15 = icmp eq ptr %14, null
  br i1 %15, label %20, label %16

16:                                               ; preds = %13
  %17 = load ptr, ptr %14, align 8, !tbaa !42
  %18 = getelementptr inbounds ptr, ptr %17, i64 1
  %19 = load ptr, ptr %18, align 8
  call void %19(ptr noundef nonnull align 8 dereferenceable(12) %14) #17
  br label %20

20:                                               ; preds = %16, %13
  br label %21

21:                                               ; preds = %20, %1
  ret void
}

; Function Attrs: mustprogress nounwind uwtable
define linkonce_odr hidden void @_ZN5boost13intrusive_ptrINS_3log11v2_mt_posix9attribute4implEE4swapERS5_(ptr noundef nonnull align 8 dereferenceable(8) %0, ptr noundef nonnull align 8 dereferenceable(8) %1) #2 comdat align 2 {
  %3 = alloca ptr, align 8
  %4 = alloca ptr, align 8
  %5 = alloca ptr, align 8
  store ptr %0, ptr %3, align 8, !tbaa !3
  store ptr %1, ptr %4, align 8, !tbaa !3
  %6 = load ptr, ptr %3, align 8
  call void @llvm.lifetime.start.p0(i64 8, ptr %5) #17
  %7 = getelementptr inbounds nuw %"class.boost::intrusive_ptr.1", ptr %6, i32 0, i32 0
  %8 = load ptr, ptr %7, align 8, !tbaa !31
  store ptr %8, ptr %5, align 8, !tbaa !3
  %9 = load ptr, ptr %4, align 8, !tbaa !3
  %10 = getelementptr inbounds nuw %"class.boost::intrusive_ptr.1", ptr %9, i32 0, i32 0
  %11 = load ptr, ptr %10, align 8, !tbaa !31
  %12 = getelementptr inbounds nuw %"class.boost::intrusive_ptr.1", ptr %6, i32 0, i32 0
  store ptr %11, ptr %12, align 8, !tbaa !31
  %13 = load ptr, ptr %5, align 8, !tbaa !3
  %14 = load ptr, ptr %4, align 8, !tbaa !3
  %15 = getelementptr inbounds nuw %"class.boost::intrusive_ptr.1", ptr %14, i32 0, i32 0
  store ptr %13, ptr %15, align 8, !tbaa !31
  call void @llvm.lifetime.end.p0(i64 8, ptr %5) #17
  ret void
}

; Function Attrs: mustprogress nounwind uwtable
define linkonce_odr hidden void @_ZN5boost13intrusive_ptrINS_3log11v2_mt_posix9attribute4implEEC2Ev(ptr noundef nonnull align 8 dereferenceable(8) %0) unnamed_addr #2 comdat align 2 {
  %2 = alloca ptr, align 8
  store ptr %0, ptr %2, align 8, !tbaa !3
  %3 = load ptr, ptr %2, align 8
  %4 = getelementptr inbounds nuw %"class.boost::intrusive_ptr.1", ptr %3, i32 0, i32 0
  store ptr null, ptr %4, align 8, !tbaa !31
  ret void
}

; Function Attrs: inlinehint mustprogress nounwind uwtable
define linkonce_odr hidden void @_ZN5boost12sp_adl_block21intrusive_ptr_add_refINS_3log11v2_mt_posix9attribute4implENS0_19thread_safe_counterEEEvPKNS0_21intrusive_ref_counterIT_T0_EE(ptr noundef %0) #5 comdat {
  %2 = alloca ptr, align 8
  store ptr %0, ptr %2, align 8, !tbaa !3
  %3 = load ptr, ptr %2, align 8, !tbaa !3
  %4 = getelementptr inbounds nuw %"class.boost::sp_adl_block::intrusive_ref_counter", ptr %3, i32 0, i32 0
  call void @_ZN5boost12sp_adl_block19thread_safe_counter9incrementERNS_6detail12atomic_countE(ptr noundef nonnull align 4 dereferenceable(4) %4) #17
  ret void
}

; Function Attrs: mustprogress nounwind uwtable
define linkonce_odr hidden noundef ptr @_ZNK5boost13intrusive_ptrINS_3log11v2_mt_posix10attributes11named_scope4implEE3getEv(ptr noundef nonnull align 8 dereferenceable(8) %0) #2 comdat align 2 {
  %2 = alloca ptr, align 8
  store ptr %0, ptr %2, align 8, !tbaa !3
  %3 = load ptr, ptr %2, align 8
  %4 = getelementptr inbounds nuw %"class.boost::intrusive_ptr", ptr %3, i32 0, i32 0
  %5 = load ptr, ptr %4, align 8, !tbaa !35
  ret ptr %5
}

; Function Attrs: mustprogress nounwind uwtable
define linkonce_odr hidden void @_ZN5boost13intrusive_ptrINS_3log11v2_mt_posix9attribute4implEED2Ev(ptr noundef nonnull align 8 dereferenceable(8) %0) unnamed_addr #2 comdat align 2 {
  %2 = alloca ptr, align 8
  store ptr %0, ptr %2, align 8, !tbaa !3
  %3 = load ptr, ptr %2, align 8
  %4 = getelementptr inbounds nuw %"class.boost::intrusive_ptr.1", ptr %3, i32 0, i32 0
  %5 = load ptr, ptr %4, align 8, !tbaa !31
  %6 = icmp ne ptr %5, null
  br i1 %6, label %7, label %15

7:                                                ; preds = %1
  %8 = getelementptr inbounds nuw %"class.boost::intrusive_ptr.1", ptr %3, i32 0, i32 0
  %9 = load ptr, ptr %8, align 8, !tbaa !31
  %10 = icmp eq ptr %9, null
  br i1 %10, label %13, label %11

11:                                               ; preds = %7
  %12 = getelementptr inbounds i8, ptr %9, i64 8
  br label %13

13:                                               ; preds = %11, %7
  %14 = phi ptr [ %12, %11 ], [ null, %7 ]
  call void @_ZN5boost12sp_adl_block21intrusive_ptr_releaseINS_3log11v2_mt_posix9attribute4implENS0_19thread_safe_counterEEEvPKNS0_21intrusive_ref_counterIT_T0_EE(ptr noundef %14) #17
  br label %15

15:                                               ; preds = %13, %1
  ret void
}

; Function Attrs: mustprogress nounwind uwtable
define linkonce_odr hidden void @_ZN5boost3log11v2_mt_posix9attributeC2ENS_13intrusive_ptrINS2_4implEEE(ptr noundef nonnull align 8 dereferenceable(8) %0, ptr noundef %1) unnamed_addr #2 comdat align 2 {
  %3 = alloca ptr, align 8
  %4 = alloca ptr, align 8
  store ptr %0, ptr %3, align 8, !tbaa !3
  store ptr %1, ptr %4, align 8, !tbaa !3
  %5 = load ptr, ptr %3, align 8
  %6 = getelementptr inbounds nuw %"class.boost::log::v2_mt_posix::attribute", ptr %5, i32 0, i32 0
  call void @_ZN5boost13intrusive_ptrINS_3log11v2_mt_posix9attribute4implEEC2Ev(ptr noundef nonnull align 8 dereferenceable(8) %6) #17
  %7 = getelementptr inbounds nuw %"class.boost::log::v2_mt_posix::attribute", ptr %5, i32 0, i32 0
  call void @_ZN5boost13intrusive_ptrINS_3log11v2_mt_posix9attribute4implEE4swapERS5_(ptr noundef nonnull align 8 dereferenceable(8) %7, ptr noundef nonnull align 8 dereferenceable(8) %1) #17
  ret void
}

; Function Attrs: mustprogress nounwind uwtable
define linkonce_odr hidden void @_ZN5boost13intrusive_ptrINS_3log11v2_mt_posix9attribute4implEEC2INS2_10attributes11named_scope4implEEERKNS0_IT_EENS_6detail24sp_enable_if_convertibleISA_S4_E4typeE(ptr noundef nonnull align 8 dereferenceable(8) %0, ptr noundef nonnull align 8 dereferenceable(8) %1) unnamed_addr #2 comdat align 2 {
  %3 = alloca ptr, align 8
  %4 = alloca ptr, align 8
  store ptr %0, ptr %3, align 8, !tbaa !3
  store ptr %1, ptr %4, align 8, !tbaa !3
  %5 = load ptr, ptr %3, align 8
  %6 = getelementptr inbounds nuw %"class.boost::intrusive_ptr.1", ptr %5, i32 0, i32 0
  %7 = load ptr, ptr %4, align 8, !tbaa !3
  %8 = call noundef ptr @_ZNK5boost13intrusive_ptrINS_3log11v2_mt_posix10attributes11named_scope4implEE3getEv(ptr noundef nonnull align 8 dereferenceable(8) %7) #17
  store ptr %8, ptr %6, align 8, !tbaa !31
  %9 = getelementptr inbounds nuw %"class.boost::intrusive_ptr.1", ptr %5, i32 0, i32 0
  %10 = load ptr, ptr %9, align 8, !tbaa !31
  %11 = icmp ne ptr %10, null
  br i1 %11, label %12, label %20

12:                                               ; preds = %2
  %13 = getelementptr inbounds nuw %"class.boost::intrusive_ptr.1", ptr %5, i32 0, i32 0
  %14 = load ptr, ptr %13, align 8, !tbaa !31
  %15 = icmp eq ptr %14, null
  br i1 %15, label %18, label %16

16:                                               ; preds = %12
  %17 = getelementptr inbounds i8, ptr %14, i64 8
  br label %18

18:                                               ; preds = %16, %12
  %19 = phi ptr [ %17, %16 ], [ null, %12 ]
  call void @_ZN5boost12sp_adl_block21intrusive_ptr_add_refINS_3log11v2_mt_posix9attribute4implENS0_19thread_safe_counterEEEvPKNS0_21intrusive_ref_counterIT_T0_EE(ptr noundef %19) #17
  br label %20

20:                                               ; preds = %18, %2
  ret void
}

; Function Attrs: mustprogress uwtable
define void @_ZN5boost3log11v2_mt_posix10attributes11named_scopeC2Ev(ptr noundef nonnull align 8 dereferenceable(8) %0) unnamed_addr #1 align 2 {
  %2 = alloca ptr, align 8
  %3 = alloca %"class.boost::intrusive_ptr.1", align 8
  store ptr %0, ptr %2, align 8, !tbaa !3
  %4 = load ptr, ptr %2, align 8
  %5 = load ptr, ptr @_ZN5boost3log11v2_mt_posix3aux9singletonINS1_10attributes11named_scope4implENS_13intrusive_ptrIS6_EEE8instanceE, align 8, !tbaa !3
  call void @_ZN5boost13intrusive_ptrINS_3log11v2_mt_posix9attribute4implEEC2INS2_10attributes11named_scope4implEEERKNS0_IT_EENS_6detail24sp_enable_if_convertibleISA_S4_E4typeE(ptr noundef nonnull align 8 dereferenceable(8) %3, ptr noundef nonnull align 8 dereferenceable(8) %5)
  call void @_ZN5boost3log11v2_mt_posix9attributeC2ENS_13intrusive_ptrINS2_4implEEE(ptr noundef nonnull align 8 dereferenceable(8) %4, ptr noundef %3) #17
  call void @_ZN5boost13intrusive_ptrINS_3log11v2_mt_posix9attribute4implEED2Ev(ptr noundef nonnull align 8 dereferenceable(8) %3) #17
  ret void
}