; Function Attrs: mustprogress nofree norecurse nounwind willreturn memory(readwrite, inaccessiblemem: none) uwtable
define void @_ZN5boost3log11v2_mt_posix10attributes11named_scopeC2Ev(ptr nocapture noundef nonnull writeonly align 8 dereferenceable(8) %0) unnamed_addr #7 align 2 personality ptr @__gxx_personality_v0 {
  %2 = load ptr, ptr @_ZN5boost3log11v2_mt_posix3aux9singletonINS1_10attributes11named_scope4implENS_13intrusive_ptrIS6_EEE8instanceE, align 8, !tbaa !3
  %3 = load ptr, ptr %2, align 8, !tbaa !37
  %.not.i = icmp eq ptr %3, null
  br i1 %.not.i, label %_ZN5boost13intrusive_ptrINS_3log11v2_mt_posix9attribute4implEED2Ev.exit, label %4

4:                                                ; preds = %1
  %5 = getelementptr inbounds i8, ptr %3, i64 8
  %6 = atomicrmw add ptr %5, i32 1 acq_rel, align 4
  br label %_ZN5boost13intrusive_ptrINS_3log11v2_mt_posix9attribute4implEED2Ev.exit

_ZN5boost13intrusive_ptrINS_3log11v2_mt_posix9attribute4implEED2Ev.exit: ; preds = %4, %1
  store ptr %3, ptr %0, align 8, !tbaa !39
  ret void
}